target datalayout = "e-m:e-p270:32:32-p271:32:32-p272:64:64-i64:64-i128:128-f80:128-n8:16:32:64-S128"
target triple = "x86_64-pc-linux-gnu"

; Function Attrs: nounwind uwtable
define internal void @put_chroma_hv_8(ptr noundef %0, ptr noundef %1, i64 noundef %2, i32 noundef %3, ptr noundef %4, ptr noundef %5, i32 noundef %6) #0 {
  %8 = alloca ptr, align 8
  %9 = alloca ptr, align 8
  %10 = alloca i64, align 8
  %11 = alloca i32, align 4
  %12 = alloca ptr, align 8
  %13 = alloca ptr, align 8
  %14 = alloca i32, align 4
  %15 = alloca [16768 x i16], align 16
  %16 = alloca ptr, align 8
  %17 = alloca ptr, align 8
  %18 = alloca i64, align 8
  %19 = alloca ptr, align 8
  %20 = alloca i32, align 4
  %21 = alloca i32, align 4
  %22 = alloca i32, align 4
  %23 = alloca i32, align 4
  %24 = alloca i32, align 4
  store ptr %0, ptr %8, align 8, !tbaa !142
  store ptr %1, ptr %9, align 8, !tbaa !144
  store i64 %2, ptr %10, align 8, !tbaa !146
  store i32 %3, ptr %11, align 4, !tbaa !9
  store ptr %4, ptr %12, align 8, !tbaa !144
  store ptr %5, ptr %13, align 8, !tbaa !144
  store i32 %6, ptr %14, align 4, !tbaa !9
  call void @llvm.lifetime.start.p0(i64 33536, ptr %15) #8
  call void @llvm.lifetime.start.p0(i64 8, ptr %16) #8
  %25 = getelementptr inbounds [16768 x i16], ptr %15, i64 0, i64 0
  store ptr %25, ptr %16, align 8, !tbaa !142
  call void @llvm.lifetime.start.p0(i64 8, ptr %17) #8
  %26 = load ptr, ptr %9, align 8, !tbaa !144
  store ptr %26, ptr %17, align 8, !tbaa !144
  call void @llvm.lifetime.start.p0(i64 8, ptr %18) #8
  %27 = load i64, ptr %10, align 8, !tbaa !146
  %28 = udiv i64 %27, 1
  store i64 %28, ptr %18, align 8, !tbaa !146
  call void @llvm.lifetime.start.p0(i64 8, ptr %19) #8
  %29 = load ptr, ptr %12, align 8, !tbaa !144
  store ptr %29, ptr %19, align 8, !tbaa !144
  %30 = load i64, ptr %18, align 8, !tbaa !146
  %31 = mul nsw i64 1, %30
  %32 = load ptr, ptr %17, align 8, !tbaa !144
  %33 = sub i64 0, %31
  %34 = getelementptr inbounds i8, ptr %32, i64 %33
  store ptr %34, ptr %17, align 8, !tbaa !144
  call void @llvm.lifetime.start.p0(i64 4, ptr %20) #8
  store i32 0, ptr %20, align 4, !tbaa !9
  br label %35

35:                                               ; preds = %113, %7
  %36 = load i32, ptr %20, align 4, !tbaa !9
  %37 = load i32, ptr %11, align 4, !tbaa !9
  %38 = add nsw i32 %37, 3
  %39 = icmp slt i32 %36, %38
  br i1 %39, label %41, label %40

40:                                               ; preds = %35
  store i32 2, ptr %21, align 4
  call void @llvm.lifetime.end.p0(i64 4, ptr %20) #8
  br label %116

41:                                               ; preds = %35
  call void @llvm.lifetime.start.p0(i64 4, ptr %22) #8
  store i32 0, ptr %22, align 4, !tbaa !9
  br label %42

42:                                               ; preds = %104, %41
  %43 = load i32, ptr %22, align 4, !tbaa !9
  %44 = load i32, ptr %14, align 4, !tbaa !9
  %45 = icmp slt i32 %43, %44
  br i1 %45, label %47, label %46

46:                                               ; preds = %42
  store i32 5, ptr %21, align 4
  call void @llvm.lifetime.end.p0(i64 4, ptr %22) #8
  br label %107

47:                                               ; preds = %42
  %48 = load ptr, ptr %19, align 8, !tbaa !144
  %49 = getelementptr inbounds i8, ptr %48, i64 0
  %50 = load i8, ptr %49, align 1, !tbaa !152
  %51 = sext i8 %50 to i32
  %52 = load ptr, ptr %17, align 8, !tbaa !144
  %53 = load i32, ptr %22, align 4, !tbaa !9
  %54 = sub nsw i32 %53, 1
  %55 = sext i32 %54 to i64
  %56 = getelementptr inbounds i8, ptr %52, i64 %55
  %57 = load i8, ptr %56, align 1, !tbaa !152
  %58 = zext i8 %57 to i32
  %59 = mul nsw i32 %51, %58
  %60 = load ptr, ptr %19, align 8, !tbaa !144
  %61 = getelementptr inbounds i8, ptr %60, i64 1
  %62 = load i8, ptr %61, align 1, !tbaa !152
  %63 = sext i8 %62 to i32
  %64 = load ptr, ptr %17, align 8, !tbaa !144
  %65 = load i32, ptr %22, align 4, !tbaa !9
  %66 = sext i32 %65 to i64
  %67 = getelementptr inbounds i8, ptr %64, i64 %66
  %68 = load i8, ptr %67, align 1, !tbaa !152
  %69 = zext i8 %68 to i32
  %70 = mul nsw i32 %63, %69
  %71 = add nsw i32 %59, %70
  %72 = load ptr, ptr %19, align 8, !tbaa !144
  %73 = getelementptr inbounds i8, ptr %72, i64 2
  %74 = load i8, ptr %73, align 1, !tbaa !152
  %75 = sext i8 %74 to i32
  %76 = load ptr, ptr %17, align 8, !tbaa !144
  %77 = load i32, ptr %22, align 4, !tbaa !9
  %78 = add nsw i32 %77, 1
  %79 = sext i32 %78 to i64
  %80 = getelementptr inbounds i8, ptr %76, i64 %79
  %81 = load i8, ptr %80, align 1, !tbaa !152
  %82 = zext i8 %81 to i32
  %83 = mul nsw i32 %75, %82
  %84 = add nsw i32 %71, %83
  %85 = load ptr, ptr %19, align 8, !tbaa !144
  %86 = getelementptr inbounds i8, ptr %85, i64 3
  %87 = load i8, ptr %86, align 1, !tbaa !152
  %88 = sext i8 %87 to i32
  %89 = load ptr, ptr %17, align 8, !tbaa !144
  %90 = load i32, ptr %22, align 4, !tbaa !9
  %91 = add nsw i32 %90, 2
  %92 = sext i32 %91 to i64
  %93 = getelementptr inbounds i8, ptr %89, i64 %92
  %94 = load i8, ptr %93, align 1, !tbaa !152
  %95 = zext i8 %94 to i32
  %96 = mul nsw i32 %88, %95
  %97 = add nsw i32 %84, %96
  %98 = ashr i32 %97, 0
  %99 = trunc i32 %98 to i16
  %100 = load ptr, ptr %16, align 8, !tbaa !142
  %101 = load i32, ptr %22, align 4, !tbaa !9
  %102 = sext i32 %101 to i64
  %103 = getelementptr inbounds i16, ptr %100, i64 %102
  store i16 %99, ptr %103, align 2, !tbaa !148
  br label %104

104:                                              ; preds = %47
  %105 = load i32, ptr %22, align 4, !tbaa !9
  %106 = add nsw i32 %105, 1
  store i32 %106, ptr %22, align 4, !tbaa !9
  br label %42, !llvm.loop !723

107:                                              ; preds = %46
  %108 = load i64, ptr %18, align 8, !tbaa !146
  %109 = load ptr, ptr %17, align 8, !tbaa !144
  %110 = getelementptr inbounds i8, ptr %109, i64 %108
  store ptr %110, ptr %17, align 8, !tbaa !144
  %111 = load ptr, ptr %16, align 8, !tbaa !142
  %112 = getelementptr inbounds i16, ptr %111, i64 128
  store ptr %112, ptr %16, align 8, !tbaa !142
  br label %113

113:                                              ; preds = %107
  %114 = load i32, ptr %20, align 4, !tbaa !9
  %115 = add nsw i32 %114, 1
  store i32 %115, ptr %20, align 4, !tbaa !9
  br label %35, !llvm.loop !724

116:                                              ; preds = %40
  %117 = getelementptr inbounds [16768 x i16], ptr %15, i64 0, i64 0
  %118 = getelementptr inbounds i16, ptr %117, i64 128
  store ptr %118, ptr %16, align 8, !tbaa !142
  %119 = load ptr, ptr %13, align 8, !tbaa !144
  store ptr %119, ptr %19, align 8, !tbaa !144
  call void @llvm.lifetime.start.p0(i64 4, ptr %23) #8
  store i32 0, ptr %23, align 4, !tbaa !9
  br label %120

120:                                              ; preds = %196, %116
  %121 = load i32, ptr %23, align 4, !tbaa !9
  %122 = load i32, ptr %11, align 4, !tbaa !9
  %123 = icmp slt i32 %121, %122
  br i1 %123, label %125, label %124

124:                                              ; preds = %120
  store i32 8, ptr %21, align 4
  call void @llvm.lifetime.end.p0(i64 4, ptr %23) #8
  br label %199

125:                                              ; preds = %120
  call void @llvm.lifetime.start.p0(i64 4, ptr %24) #8
  store i32 0, ptr %24, align 4, !tbaa !9
  br label %126

126:                                              ; preds = %188, %125
  %127 = load i32, ptr %24, align 4, !tbaa !9
  %128 = load i32, ptr %14, align 4, !tbaa !9
  %129 = icmp slt i32 %127, %128
  br i1 %129, label %131, label %130

130:                                              ; preds = %126
  store i32 11, ptr %21, align 4
  call void @llvm.lifetime.end.p0(i64 4, ptr %24) #8
  br label %191

131:                                              ; preds = %126
  %132 = load ptr, ptr %19, align 8, !tbaa !144
  %133 = getelementptr inbounds i8, ptr %132, i64 0
  %134 = load i8, ptr %133, align 1, !tbaa !152
  %135 = sext i8 %134 to i32
  %136 = load ptr, ptr %16, align 8, !tbaa !142
  %137 = load i32, ptr %24, align 4, !tbaa !9
  %138 = sub nsw i32 %137, 128
  %139 = sext i32 %138 to i64
  %140 = getelementptr inbounds i16, ptr %136, i64 %139
  %141 = load i16, ptr %140, align 2, !tbaa !148
  %142 = sext i16 %141 to i32
  %143 = mul nsw i32 %135, %142
  %144 = load ptr, ptr %19, align 8, !tbaa !144
  %145 = getelementptr inbounds i8, ptr %144, i64 1
  %146 = load i8, ptr %145, align 1, !tbaa !152
  %147 = sext i8 %146 to i32
  %148 = load ptr, ptr %16, align 8, !tbaa !142
  %149 = load i32, ptr %24, align 4, !tbaa !9
  %150 = sext i32 %149 to i64
  %151 = getelementptr inbounds i16, ptr %148, i64 %150
  %152 = load i16, ptr %151, align 2, !tbaa !148
  %153 = sext i16 %152 to i32
  %154 = mul nsw i32 %147, %153
  %155 = add nsw i32 %143, %154
  %156 = load ptr, ptr %19, align 8, !tbaa !144
  %157 = getelementptr inbounds i8, ptr %156, i64 2
  %158 = load i8, ptr %157, align 1, !tbaa !152
  %159 = sext i8 %158 to i32
  %160 = load ptr, ptr %16, align 8, !tbaa !142
  %161 = load i32, ptr %24, align 4, !tbaa !9
  %162 = add nsw i32 %161, 128
  %163 = sext i32 %162 to i64
  %164 = getelementptr inbounds i16, ptr %160, i64 %163
  %165 = load i16, ptr %164, align 2, !tbaa !148
  %166 = sext i16 %165 to i32
  %167 = mul nsw i32 %159, %166
  %168 = add nsw i32 %155, %167
  %169 = load ptr, ptr %19, align 8, !tbaa !144
  %170 = getelementptr inbounds i8, ptr %169, i64 3
  %171 = load i8, ptr %170, align 1, !tbaa !152
  %172 = sext i8 %171 to i32
  %173 = load ptr, ptr %16, align 8, !tbaa !142
  %174 = load i32, ptr %24, align 4, !tbaa !9
  %175 = add nsw i32 %174, 256
  %176 = sext i32 %175 to i64
  %177 = getelementptr inbounds i16, ptr %173, i64 %176
  %178 = load i16, ptr %177, align 2, !tbaa !148
  %179 = sext i16 %178 to i32
  %180 = mul nsw i32 %172, %179
  %181 = add nsw i32 %168, %180
  %182 = ashr i32 %181, 6
  %183 = trunc i32 %182 to i16
  %184 = load ptr, ptr %8, align 8, !tbaa !142
  %185 = load i32, ptr %24, align 4, !tbaa !9
  %186 = sext i32 %185 to i64
  %187 = getelementptr inbounds i16, ptr %184, i64 %186
  store i16 %183, ptr %187, align 2, !tbaa !148
  br label %188

188:                                              ; preds = %131
  %189 = load i32, ptr %24, align 4, !tbaa !9
  %190 = add nsw i32 %189, 1
  store i32 %190, ptr %24, align 4, !tbaa !9
  br label %126, !llvm.loop !725

191:                                              ; preds = %130
  %192 = load ptr, ptr %16, align 8, !tbaa !142
  %193 = getelementptr inbounds i16, ptr %192, i64 128
  store ptr %193, ptr %16, align 8, !tbaa !142
  %194 = load ptr, ptr %8, align 8, !tbaa !142
  %195 = getelementptr inbounds i16, ptr %194, i64 128
  store ptr %195, ptr %8, align 8, !tbaa !142
  br label %196

196:                                              ; preds = %191
  %197 = load i32, ptr %23, align 4, !tbaa !9
  %198 = add nsw i32 %197, 1
  store i32 %198, ptr %23, align 4, !tbaa !9
  br label %120, !llvm.loop !726

199:                                              ; preds = %124
  call void @llvm.lifetime.end.p0(i64 8, ptr %19) #8
  call void @llvm.lifetime.end.p0(i64 8, ptr %18) #8
  call void @llvm.lifetime.end.p0(i64 8, ptr %17) #8
  call void @llvm.lifetime.end.p0(i64 8, ptr %16) #8
  call void @llvm.lifetime.end.p0(i64 33536, ptr %15) #8
  ret void
}