; Function Attrs: nofree norecurse nosync nounwind memory(argmem: readwrite) uwtable
define internal void @put_chroma_hv_8(ptr noundef writeonly captures(none) %0, ptr noundef readonly captures(none) %1, i64 noundef %2, i32 noundef %3, ptr noundef readonly captures(none) %4, ptr noundef readonly captures(none) %5, i32 noundef %6) #2 {
  %8 = alloca [16768 x i16], align 16
  call void @llvm.lifetime.start.p0(i64 33536, ptr nonnull %8) #14
  %9 = sub i64 0, %2
  %10 = getelementptr inbounds i8, ptr %1, i64 %9
  %11 = add i32 %3, 3
  %12 = icmp sgt i32 %3, -3
  br i1 %12, label %.preheader57.lr.ph, label %._crit_edge67

.preheader57.lr.ph:                               ; preds = %7
  %13 = icmp sgt i32 %6, 0
  br i1 %13, label %.preheader57.lr.ph.split.us, label %.preheader56

.preheader57.lr.ph.split.us:                      ; preds = %.preheader57.lr.ph
  %14 = getelementptr inbounds nuw i8, ptr %4, i64 3
  %15 = getelementptr inbounds nuw i8, ptr %4, i64 2
  %16 = getelementptr inbounds nuw i8, ptr %4, i64 1
  %17 = load i8, ptr %4, align 1, !tbaa !128
  %18 = sext i8 %17 to i16
  %19 = load i8, ptr %16, align 1, !tbaa !128
  %20 = sext i8 %19 to i16
  %21 = load i8, ptr %15, align 1, !tbaa !128
  %22 = sext i8 %21 to i16
  %23 = load i8, ptr %14, align 1, !tbaa !128
  %24 = sext i8 %23 to i16
  %smax = tail call i32 @llvm.smax.i32(i32 %11, i32 1)
  %wide.trip.count = zext nneg i32 %6 to i64
  br label %.preheader57.us

.preheader57.us:                                  ; preds = %._crit_edge.us, %.preheader57.lr.ph.split.us
  %.05261.us = phi i32 [ 0, %.preheader57.lr.ph.split.us ], [ %48, %._crit_edge.us ]
  %.05460.us = phi ptr [ %10, %.preheader57.lr.ph.split.us ], [ %46, %._crit_edge.us ]
  %.05559.us = phi ptr [ %8, %.preheader57.lr.ph.split.us ], [ %47, %._crit_edge.us ]
  %.pre = load i8, ptr %.05460.us, align 1, !tbaa !128
  br label %25

25:                                               ; preds = %.preheader57.us, %25
  %26 = phi i8 [ %.pre, %.preheader57.us ], [ %36, %25 ]
  %indvars.iv = phi i64 [ 0, %.preheader57.us ], [ %indvars.iv.next, %25 ]
  %27 = getelementptr i8, ptr %.05460.us, i64 %indvars.iv
  %28 = getelementptr i8, ptr %27, i64 -1
  %29 = load i8, ptr %28, align 1, !tbaa !128
  %30 = zext i8 %29 to i16
  %31 = mul nsw i16 %30, %18
  %32 = zext i8 %26 to i16
  %33 = mul nsw i16 %32, %20
  %34 = add i16 %33, %31
  %indvars.iv.next = add nuw nsw i64 %indvars.iv, 1
  %35 = getelementptr inbounds nuw i8, ptr %.05460.us, i64 %indvars.iv.next
  %36 = load i8, ptr %35, align 1, !tbaa !128
  %37 = zext i8 %36 to i16
  %38 = mul nsw i16 %37, %22
  %39 = add i16 %34, %38
  %40 = getelementptr inbounds nuw i8, ptr %27, i64 2
  %41 = load i8, ptr %40, align 1, !tbaa !128
  %42 = zext i8 %41 to i16
  %43 = mul nsw i16 %42, %24
  %44 = add i16 %39, %43
  %45 = getelementptr inbounds nuw i16, ptr %.05559.us, i64 %indvars.iv
  store i16 %44, ptr %45, align 2, !tbaa !124
  %exitcond.not = icmp eq i64 %indvars.iv.next, %wide.trip.count
  br i1 %exitcond.not, label %._crit_edge.us, label %25, !llvm.loop !686

._crit_edge.us:                                   ; preds = %25
  %46 = getelementptr inbounds i8, ptr %.05460.us, i64 %2
  %47 = getelementptr inbounds nuw i8, ptr %.05559.us, i64 256
  %48 = add nuw nsw i32 %.05261.us, 1
  %exitcond72.not = icmp eq i32 %48, %smax
  br i1 %exitcond72.not, label %.preheader56, label %.preheader57.us, !llvm.loop !687

.preheader56:                                     ; preds = %._crit_edge.us, %.preheader57.lr.ph
  %49 = icmp sgt i32 %3, 0
  br i1 %49, label %.preheader.lr.ph, label %._crit_edge67

.preheader.lr.ph:                                 ; preds = %.preheader56
  %50 = icmp sgt i32 %6, 0
  %51 = getelementptr inbounds nuw i8, ptr %5, i64 1
  %52 = getelementptr inbounds nuw i8, ptr %5, i64 2
  %53 = getelementptr inbounds nuw i8, ptr %5, i64 3
  br i1 %50, label %.preheader.us.preheader, label %._crit_edge67

.preheader.us.preheader:                          ; preds = %.preheader.lr.ph
  %.163 = getelementptr inbounds nuw i8, ptr %8, i64 256
  %wide.trip.count76 = zext nneg i32 %6 to i64
  br label %.preheader.us

.preheader.us:                                    ; preds = %.preheader.us.preheader, %._crit_edge.us68
  %.166.us = phi ptr [ %.1.us, %._crit_edge.us68 ], [ %.163, %.preheader.us.preheader ]
  %.05065.us = phi i32 [ %86, %._crit_edge.us68 ], [ 0, %.preheader.us.preheader ]
  %.05364.us = phi ptr [ %85, %._crit_edge.us68 ], [ %0, %.preheader.us.preheader ]
  br label %54

54:                                               ; preds = %.preheader.us, %54
  %indvars.iv73 = phi i64 [ 0, %.preheader.us ], [ %indvars.iv.next74, %54 ]
  %55 = load i8, ptr %5, align 1, !tbaa !128
  %56 = sext i8 %55 to i32
  %57 = getelementptr i16, ptr %.166.us, i64 %indvars.iv73
  %58 = getelementptr i8, ptr %57, i64 -256
  %59 = load i16, ptr %58, align 2, !tbaa !124
  %60 = sext i16 %59 to i32
  %61 = mul nsw i32 %60, %56
  %62 = load i8, ptr %51, align 1, !tbaa !128
  %63 = sext i8 %62 to i32
  %64 = load i16, ptr %57, align 2, !tbaa !124
  %65 = sext i16 %64 to i32
  %66 = mul nsw i32 %65, %63
  %67 = add nsw i32 %66, %61
  %68 = load i8, ptr %52, align 1, !tbaa !128
  %69 = sext i8 %68 to i32
  %70 = getelementptr inbounds nuw i8, ptr %57, i64 256
  %71 = load i16, ptr %70, align 2, !tbaa !124
  %72 = sext i16 %71 to i32
  %73 = mul nsw i32 %72, %69
  %74 = add nsw i32 %67, %73
  %75 = load i8, ptr %53, align 1, !tbaa !128
  %76 = sext i8 %75 to i32
  %77 = getelementptr inbounds nuw i8, ptr %57, i64 512
  %78 = load i16, ptr %77, align 2, !tbaa !124
  %79 = sext i16 %78 to i32
  %80 = mul nsw i32 %79, %76
  %81 = add nsw i32 %74, %80
  %82 = lshr i32 %81, 6
  %83 = trunc i32 %82 to i16
  %84 = getelementptr inbounds nuw i16, ptr %.05364.us, i64 %indvars.iv73
  store i16 %83, ptr %84, align 2, !tbaa !124
  %indvars.iv.next74 = add nuw nsw i64 %indvars.iv73, 1
  %exitcond77.not = icmp eq i64 %indvars.iv.next74, %wide.trip.count76
  br i1 %exitcond77.not, label %._crit_edge.us68, label %54, !llvm.loop !688

._crit_edge.us68:                                 ; preds = %54
  %85 = getelementptr inbounds nuw i8, ptr %.05364.us, i64 256
  %86 = add nuw nsw i32 %.05065.us, 1
  %.1.us = getelementptr inbounds nuw i8, ptr %.166.us, i64 256
  %exitcond78.not = icmp eq i32 %86, %3
  br i1 %exitcond78.not, label %._crit_edge67, label %.preheader.us, !llvm.loop !689

._crit_edge67:                                    ; preds = %._crit_edge.us68, %7, %.preheader.lr.ph, %.preheader56
  call void @llvm.lifetime.end.p0(i64 33536, ptr nonnull %8) #14
  ret void
}